; Function Attrs: mustprogress nofree norecurse nosync nounwind willreturn memory(read, inaccessiblemem: none) uwtable
define hidden { ptr, i64 } @_ZN6hermes2vm15StringPrimitive26createStringViewMustBeFlatENS0_6HandleIS1_EE(ptr %self.coerce) local_unnamed_addr #5 align 2 {
entry:
  %agg.tmp.sroa.0.0.copyload.i.i.i = load i64, ptr %self.coerce, align 8
  %and.i.i.i.i.i.i = and i64 %agg.tmp.sroa.0.0.copyload.i.i.i, 281474976710655
  %0 = inttoptr i64 %and.i.i.i.i.i.i to ptr
  %bf.load.i.i.i.i = load i32, ptr %0, align 4
  %1 = shl i32 %bf.load.i.i.i.i, 7
  %2 = and i32 %1, -2147483648
  %bf.set9.i = xor i32 %2, -1073741824
  %lengthAndUniquedFlag_.i.i = getelementptr inbounds nuw i8, ptr %0, i64 4
  %3 = load i32, ptr %lengthAndUniquedFlag_.i.i, align 4
  %and.i.i = and i32 %3, 2147483647
  %.fca.0.insert = insertvalue { ptr, i64 } poison, ptr %self.coerce, 0
  %retval.sroa.6.8.insert.ext = zext nneg i32 %and.i.i to i64
  %retval.sroa.6.8.insert.shift = shl nuw nsw i64 %retval.sroa.6.8.insert.ext, 32
  %retval.sroa.2.8.insert.ext = zext i32 %bf.set9.i to i64
  %retval.sroa.2.8.insert.insert = or disjoint i64 %retval.sroa.6.8.insert.shift, %retval.sroa.2.8.insert.ext
  %.fca.1.insert = insertvalue { ptr, i64 } %.fca.0.insert, i64 %retval.sroa.2.8.insert.insert, 1
  ret { ptr, i64 } %.fca.1.insert
}